target datalayout = "e-m:e-p270:32:32-p271:32:32-p272:64:64-i64:64-i128:128-f80:128-n8:16:32:64-S128"
target triple = "x86_64-pc-linux-gnu"

%struct.stbte__colorrect = type { i32, i32, i32, i32, i32 }
%struct.stbte__panel = type { i32, i32, i32, i32, i32, i32, i32, i32 }
%struct.stbte__ui_t = type { i32, i32, i32, i32, i32, i32, i32, i32, i32, i32, i32, i32, i32, i32, [2 x i32], [256 x %struct.stbte__colorrect], i32, i32, i32, i32, i32, i32, i32, i32, i32, i32, i32, i32, i32, i32, i32, i32, i32, i32, i32, i32, i32, i32, i32, i32, i32, i32, i32, i32, i32, i32, i32, i32, i32, i32, i32, i32, i32, i32, i32, i32, i32, float, ptr, float, [7 x %struct.stbte__panel], [65536 x [8 x i16]], [65536 x [1 x float]], i32, i32, ptr, i32, i32, i32, i32 }

@stbte__font_offset = global [111 x i16] zeroinitializer, align 16

; Function Attrs: nounwind uwtable
define void @stbte__draw_rect(i32 noundef %0, i32 noundef %1, i32 noundef %2, i32 noundef %3, i32 noundef %4) #0 {
  %6 = alloca i32, align 4
  %7 = alloca i32, align 4
  %8 = alloca i32, align 4
  %9 = alloca i32, align 4
  %10 = alloca i32, align 4
  store i32 %0, ptr %6, align 4, !tbaa !13
  store i32 %1, ptr %7, align 4, !tbaa !13
  store i32 %2, ptr %8, align 4, !tbaa !13
  store i32 %3, ptr %9, align 4, !tbaa !13
  store i32 %4, ptr %10, align 4, !tbaa !13
  %11 = load i32, ptr %6, align 4, !tbaa !13
  %12 = load i32, ptr %7, align 4, !tbaa !13
  %13 = load i32, ptr %8, align 4, !tbaa !13
  %14 = load i32, ptr %9, align 4, !tbaa !13
  %15 = load i32, ptr %10, align 4, !tbaa !13
  call void @STBTE_DRAW_RECT(i32 noundef %11, i32 noundef %12, i32 noundef %13, i32 noundef %14, i32 noundef %15)
  ret void
}

; Function Attrs: nounwind uwtable
define void @stbte__draw_bitmask_as_columns(i32 noundef %0, i32 noundef %1, i16 noundef signext %2, i32 noundef %3) #0 {
  %5 = alloca i32, align 4
  %6 = alloca i32, align 4
  %7 = alloca i16, align 2
  %8 = alloca i32, align 4
  %9 = alloca i32, align 4
  %10 = alloca i32, align 4
  store i32 %0, ptr %5, align 4, !tbaa !13
  store i32 %1, ptr %6, align 4, !tbaa !13
  store i16 %2, ptr %7, align 2, !tbaa !22
  store i32 %3, ptr %8, align 4, !tbaa !13
  call void @llvm.lifetime.start.p0(i64 4, ptr %9) #8
  store i32 -1, ptr %9, align 4, !tbaa !13
  call void @llvm.lifetime.start.p0(i64 4, ptr %10) #8
  store i32 0, ptr %10, align 4, !tbaa !13
  br label %11

11:                                               ; preds = %50, %4
  %12 = load i16, ptr %7, align 2, !tbaa !22
  %13 = icmp ne i16 %12, 0
  br i1 %13, label %14, label %53

14:                                               ; preds = %11
  %15 = load i16, ptr %7, align 2, !tbaa !22
  %16 = sext i16 %15 to i32
  %17 = load i32, ptr %10, align 4, !tbaa !13
  %18 = shl i32 1, %17
  %19 = and i32 %16, %18
  %20 = icmp ne i32 %19, 0
  br i1 %20, label %21, label %27

21:                                               ; preds = %14
  %22 = load i32, ptr %9, align 4, !tbaa !13
  %23 = icmp slt i32 %22, 0
  br i1 %23, label %24, label %26

24:                                               ; preds = %21
  %25 = load i32, ptr %10, align 4, !tbaa !13
  store i32 %25, ptr %9, align 4, !tbaa !13
  br label %26

26:                                               ; preds = %24, %21
  br label %50

27:                                               ; preds = %14
  %28 = load i32, ptr %9, align 4, !tbaa !13
  %29 = icmp sge i32 %28, 0
  br i1 %29, label %30, label %49

30:                                               ; preds = %27
  %31 = load i32, ptr %5, align 4, !tbaa !13
  %32 = load i32, ptr %6, align 4, !tbaa !13
  %33 = load i32, ptr %9, align 4, !tbaa !13
  %34 = add nsw i32 %32, %33
  %35 = load i32, ptr %5, align 4, !tbaa !13
  %36 = add nsw i32 %35, 1
  %37 = load i32, ptr %6, align 4, !tbaa !13
  %38 = load i32, ptr %10, align 4, !tbaa !13
  %39 = add nsw i32 %37, %38
  %40 = load i32, ptr %8, align 4, !tbaa !13
  call void @stbte__draw_rect(i32 noundef %31, i32 noundef %34, i32 noundef %36, i32 noundef %39, i32 noundef %40)
  store i32 -1, ptr %9, align 4, !tbaa !13
  %41 = load i32, ptr %10, align 4, !tbaa !13
  %42 = shl i32 1, %41
  %43 = sub nsw i32 %42, 1
  %44 = xor i32 %43, -1
  %45 = load i16, ptr %7, align 2, !tbaa !22
  %46 = sext i16 %45 to i32
  %47 = and i32 %46, %44
  %48 = trunc i32 %47 to i16
  store i16 %48, ptr %7, align 2, !tbaa !22
  br label %49

49:                                               ; preds = %30, %27
  br label %50

50:                                               ; preds = %49, %26
  %51 = load i32, ptr %10, align 4, !tbaa !13
  %52 = add nsw i32 %51, 1
  store i32 %52, ptr %10, align 4, !tbaa !13
  br label %11, !llvm.loop !96

53:                                               ; preds = %11
  call void @llvm.lifetime.end.p0(i64 4, ptr %10) #8
  call void @llvm.lifetime.end.p0(i64 4, ptr %9) #8
  ret void
}

; Function Attrs: nounwind uwtable
define void @stbte__draw_bitmap(i32 noundef %0, i32 noundef %1, i32 noundef %2, ptr noundef %3, i32 noundef %4) #0 {
  %6 = alloca i32, align 4
  %7 = alloca i32, align 4
  %8 = alloca i32, align 4
  %9 = alloca ptr, align 8
  %10 = alloca i32, align 4
  %11 = alloca i32, align 4
  store i32 %0, ptr %6, align 4, !tbaa !13
  store i32 %1, ptr %7, align 4, !tbaa !13
  store i32 %2, ptr %8, align 4, !tbaa !13
  store ptr %3, ptr %9, align 8, !tbaa !97
  store i32 %4, ptr %10, align 4, !tbaa !13
  call void @llvm.lifetime.start.p0(i64 4, ptr %11) #8
  store i32 0, ptr %11, align 4, !tbaa !13
  br label %12

12:                                               ; preds = %25, %5
  %13 = load i32, ptr %11, align 4, !tbaa !13
  %14 = load i32, ptr %8, align 4, !tbaa !13
  %15 = icmp slt i32 %13, %14
  br i1 %15, label %16, label %28

16:                                               ; preds = %12
  %17 = load i32, ptr %6, align 4, !tbaa !13
  %18 = load i32, ptr %11, align 4, !tbaa !13
  %19 = add nsw i32 %17, %18
  %20 = load i32, ptr %7, align 4, !tbaa !13
  %21 = load ptr, ptr %9, align 8, !tbaa !97
  %22 = getelementptr inbounds nuw i16, ptr %21, i32 1
  store ptr %22, ptr %9, align 8, !tbaa !97
  %23 = load i16, ptr %21, align 2, !tbaa !22
  %24 = load i32, ptr %10, align 4, !tbaa !13
  call void @stbte__draw_bitmask_as_columns(i32 noundef %19, i32 noundef %20, i16 noundef signext %23, i32 noundef %24)
  br label %25

25:                                               ; preds = %16
  %26 = load i32, ptr %11, align 4, !tbaa !13
  %27 = add nsw i32 %26, 1
  store i32 %27, ptr %11, align 4, !tbaa !13
  br label %12, !llvm.loop !98

28:                                               ; preds = %12
  call void @llvm.lifetime.end.p0(i64 4, ptr %11) #8
  ret void
}

; Function Attrs: nounwind uwtable
define ptr @stbte__get_char_bitmap(i32 noundef %0) #0 {
  %2 = alloca i32, align 4
  store i32 %0, ptr %2, align 4, !tbaa !13
  %3 = load i32, ptr %2, align 4, !tbaa !13
  %4 = sub nsw i32 %3, 16
  %5 = sext i32 %4 to i64
  %6 = getelementptr inbounds [111 x i16], ptr @stbte__font_offset, i64 0, i64 %5
  %7 = load i16, ptr %6, align 2, !tbaa !22
  %8 = sext i16 %7 to i32
  %9 = sext i32 %8 to i64
  %10 = getelementptr inbounds i16, ptr @stbte__fontdata, i64 %9
  ret ptr %10
}

; Function Attrs: nounwind uwtable
define void @stbte__draw_text_core(i32 noundef %0, i32 noundef %1, ptr noundef %2, i32 noundef %3, i32 noundef %4, i32 noundef %5) #0 {
  %7 = alloca i32, align 4
  %8 = alloca i32, align 4
  %9 = alloca ptr, align 8
  %10 = alloca i32, align 4
  %11 = alloca i32, align 4
  %12 = alloca i32, align 4
  %13 = alloca i32, align 4
  %14 = alloca i32, align 4
  %15 = alloca i32, align 4
  %16 = alloca i32, align 4
  store i32 %0, ptr %7, align 4, !tbaa !13
  store i32 %1, ptr %8, align 4, !tbaa !13
  store ptr %2, ptr %9, align 8, !tbaa !72
  store i32 %3, ptr %10, align 4, !tbaa !13
  store i32 %4, ptr %11, align 4, !tbaa !13
  store i32 %5, ptr %12, align 4, !tbaa !13
  call void @llvm.lifetime.start.p0(i64 4, ptr %13) #8
  %17 = load i32, ptr %7, align 4, !tbaa !13
  %18 = load i32, ptr %10, align 4, !tbaa !13
  %19 = add nsw i32 %17, %18
  store i32 %19, ptr %13, align 4, !tbaa !13
  br label %20

20:                                               ; preds = %58, %6
  %21 = load ptr, ptr %9, align 8, !tbaa !72
  %22 = load i8, ptr %21, align 1, !tbaa !60
  %23 = icmp ne i8 %22, 0
  br i1 %23, label %24, label %59

24:                                               ; preds = %20
  call void @llvm.lifetime.start.p0(i64 4, ptr %14) #8
  %25 = load ptr, ptr %9, align 8, !tbaa !72
  %26 = getelementptr inbounds nuw i8, ptr %25, i32 1
  store ptr %26, ptr %9, align 8, !tbaa !72
  %27 = load i8, ptr %25, align 1, !tbaa !60
  %28 = sext i8 %27 to i32
  store i32 %28, ptr %14, align 4, !tbaa !13
  call void @llvm.lifetime.start.p0(i64 4, ptr %15) #8
  %29 = load i32, ptr %14, align 4, !tbaa !13
  %30 = call i32 @stbte__get_char_width(i32 noundef %29)
  store i32 %30, ptr %15, align 4, !tbaa !13
  %31 = load i32, ptr %7, align 4, !tbaa !13
  %32 = load i32, ptr %15, align 4, !tbaa !13
  %33 = add nsw i32 %31, %32
  %34 = load i32, ptr %13, align 4, !tbaa !13
  %35 = icmp sgt i32 %33, %34
  br i1 %35, label %36, label %37

36:                                               ; preds = %24
  store i32 3, ptr %16, align 4
  br label %56

37:                                               ; preds = %24
  %38 = load i32, ptr %7, align 4, !tbaa !13
  %39 = load i32, ptr %8, align 4, !tbaa !13
  %40 = load i32, ptr %15, align 4, !tbaa !13
  %41 = load i32, ptr %14, align 4, !tbaa !13
  %42 = call ptr @stbte__get_char_bitmap(i32 noundef %41)
  %43 = load i32, ptr %11, align 4, !tbaa !13
  call void @stbte__draw_bitmap(i32 noundef %38, i32 noundef %39, i32 noundef %40, ptr noundef %42, i32 noundef %43)
  %44 = load i32, ptr %12, align 4, !tbaa !13
  %45 = icmp ne i32 %44, 0
  br i1 %45, label %46, label %51

46:                                               ; preds = %37
  %47 = load i32, ptr %14, align 4, !tbaa !13
  %48 = icmp eq i32 %47, 32
  br i1 %48, label %49, label %51

49:                                               ; preds = %46
  %50 = call i32 @stbte__get_char_width(i32 noundef 48)
  store i32 %50, ptr %15, align 4, !tbaa !13
  br label %51

51:                                               ; preds = %49, %46, %37
  %52 = load i32, ptr %15, align 4, !tbaa !13
  %53 = add nsw i32 %52, 1
  %54 = load i32, ptr %7, align 4, !tbaa !13
  %55 = add nsw i32 %54, %53
  store i32 %55, ptr %7, align 4, !tbaa !13
  store i32 0, ptr %16, align 4
  br label %56

56:                                               ; preds = %51, %36
  call void @llvm.lifetime.end.p0(i64 4, ptr %15) #8
  call void @llvm.lifetime.end.p0(i64 4, ptr %14) #8
  %57 = load i32, ptr %16, align 4
  switch i32 %57, label %60 [
    i32 0, label %58
    i32 3, label %59
  ]

58:                                               ; preds = %56
  br label %20, !llvm.loop !99

59:                                               ; preds = %56, %20
  call void @llvm.lifetime.end.p0(i64 4, ptr %13) #8
  ret void

60:                                               ; preds = %56
  unreachable
}

; Function Attrs: nounwind uwtable
define i32 @stbte__get_char_width(i32 noundef %0) #0 {
  %2 = alloca i32, align 4
  store i32 %0, ptr %2, align 4, !tbaa !13
  %3 = load i32, ptr %2, align 4, !tbaa !13
  %4 = sub nsw i32 %3, 16
  %5 = sext i32 %4 to i64
  %6 = getelementptr inbounds [769 x i16], ptr @stbte__fontdata, i64 0, i64 %5
  %7 = load i16, ptr %6, align 2, !tbaa !22
  %8 = sext i16 %7 to i32
  ret i32 %8
}

; Function Attrs: nounwind uwtable
define i32 @stbte__info_value(ptr noundef %0, i32 noundef %1, i32 noundef %2, i32 noundef %3, i32 noundef %4, i32 noundef %5) #0 {
  %7 = alloca ptr, align 8
  %8 = alloca i32, align 4
  %9 = alloca i32, align 4
  %10 = alloca i32, align 4
  %11 = alloca i32, align 4
  %12 = alloca i32, align 4
  %13 = alloca i32, align 4
  %14 = alloca [16 x i8], align 16
  store ptr %0, ptr %7, align 8, !tbaa !72
  store i32 %1, ptr %8, align 4, !tbaa !13
  store i32 %2, ptr %9, align 4, !tbaa !13
  store i32 %3, ptr %10, align 4, !tbaa !13
  store i32 %4, ptr %11, align 4, !tbaa !13
  store i32 %5, ptr %12, align 4, !tbaa !13
  %15 = load i32, ptr getelementptr inbounds nuw (%struct.stbte__ui_t, ptr @stbte__ui, i32 0, i32 5), align 4, !tbaa !110
  %16 = icmp eq i32 %15, 0
  br i1 %16, label %17, label %35

17:                                               ; preds = %6
  call void @llvm.lifetime.start.p0(i64 4, ptr %13) #8
  %18 = load ptr, ptr %7, align 8, !tbaa !72
  %19 = getelementptr inbounds i8, ptr %18, i64 0
  %20 = load i8, ptr %19, align 1, !tbaa !60
  %21 = sext i8 %20 to i32
  %22 = call i32 @stbte__get_char_width(i32 noundef %21)
  %23 = sub nsw i32 9, %22
  store i32 %23, ptr %13, align 4, !tbaa !13
  call void @llvm.lifetime.start.p0(i64 16, ptr %14) #8
  %24 = getelementptr inbounds [16 x i8], ptr %14, i64 0, i64 0
  %25 = load ptr, ptr %7, align 8, !tbaa !72
  %26 = load i32, ptr %11, align 4, !tbaa !13
  %27 = load i32, ptr %10, align 4, !tbaa !13
  %28 = call i32 (ptr, ptr, ...) @sprintf(ptr noundef %24, ptr noundef %25, i32 noundef %26, i32 noundef %27) #8
  %29 = load i32, ptr %8, align 4, !tbaa !13
  %30 = load i32, ptr %13, align 4, !tbaa !13
  %31 = add nsw i32 %29, %30
  %32 = load i32, ptr %9, align 4, !tbaa !13
  %33 = getelementptr inbounds [16 x i8], ptr %14, i64 0, i64 0
  %34 = load i32, ptr getelementptr inbounds ([3 x [7 x i32]], ptr getelementptr inbounds ([13 x [3 x [7 x i32]]], ptr @stbte__color_table, i64 0, i64 3), i64 0, i64 2), align 4, !tbaa !13
  call void @stbte__draw_text_core(i32 noundef %31, i32 noundef %32, ptr noundef %33, i32 noundef 999, i32 noundef %34, i32 noundef 1)
  call void @llvm.lifetime.end.p0(i64 16, ptr %14) #8
  call void @llvm.lifetime.end.p0(i64 4, ptr %13) #8
  br label %35

35:                                               ; preds = %17, %6
  %36 = load i32, ptr %12, align 4, !tbaa !13
  %37 = icmp ne i32 %36, 0
  br i1 %37, label %38, label %82

38:                                               ; preds = %35
  %39 = load i32, ptr %11, align 4, !tbaa !13
  %40 = mul nsw i32 7, %39
  %41 = add nsw i32 9, %40
  %42 = add nsw i32 %41, 4
  %43 = load i32, ptr %8, align 4, !tbaa !13
  %44 = add nsw i32 %43, %42
  store i32 %44, ptr %8, align 4, !tbaa !13
  %45 = load i32, ptr %8, align 4, !tbaa !13
  %46 = load i32, ptr %9, align 4, !tbaa !13
  %47 = load i32, ptr %12, align 4, !tbaa !13
  %48 = add nsw i32 %47, 524288
  %49 = call i32 @stbte__minibutton(i32 noundef 7, i32 noundef %45, i32 noundef %46, i32 noundef 43, i32 noundef %48)
  %50 = icmp ne i32 %49, 0
  br i1 %50, label %51, label %57

51:                                               ; preds = %38
  %52 = load i32, ptr getelementptr inbounds nuw (%struct.stbte__ui_t, ptr @stbte__ui, i32 0, i32 11), align 4, !tbaa !121
  %53 = icmp ne i32 %52, 0
  %54 = select i1 %53, i32 10, i32 1
  %55 = load i32, ptr %10, align 4, !tbaa !13
  %56 = add nsw i32 %55, %54
  store i32 %56, ptr %10, align 4, !tbaa !13
  br label %57

57:                                               ; preds = %51, %38
  %58 = load i32, ptr %8, align 4, !tbaa !13
  %59 = add nsw i32 %58, 9
  store i32 %59, ptr %8, align 4, !tbaa !13
  %60 = load i32, ptr %8, align 4, !tbaa !13
  %61 = load i32, ptr %9, align 4, !tbaa !13
  %62 = load i32, ptr %12, align 4, !tbaa !13
  %63 = add nsw i32 %62, 1048576
  %64 = call i32 @stbte__minibutton(i32 noundef 7, i32 noundef %60, i32 noundef %61, i32 noundef 45, i32 noundef %63)
  %65 = icmp ne i32 %64, 0
  br i1 %65, label %66, label %72

66:                                               ; preds = %57
  %67 = load i32, ptr getelementptr inbounds nuw (%struct.stbte__ui_t, ptr @stbte__ui, i32 0, i32 11), align 4, !tbaa !121
  %68 = icmp ne i32 %67, 0
  %69 = select i1 %68, i32 10, i32 1
  %70 = load i32, ptr %10, align 4, !tbaa !13
  %71 = sub nsw i32 %70, %69
  store i32 %71, ptr %10, align 4, !tbaa !13
  br label %72

72:                                               ; preds = %66, %57
  %73 = load i32, ptr %10, align 4, !tbaa !13
  %74 = icmp slt i32 %73, 1
  br i1 %74, label %75, label %76

75:                                               ; preds = %72
  store i32 1, ptr %10, align 4, !tbaa !13
  br label %81

76:                                               ; preds = %72
  %77 = load i32, ptr %10, align 4, !tbaa !13
  %78 = icmp sgt i32 %77, 4096
  br i1 %78, label %79, label %80

79:                                               ; preds = %76
  store i32 4096, ptr %10, align 4, !tbaa !13
  br label %80

80:                                               ; preds = %79, %76
  br label %81

81:                                               ; preds = %80, %75
  br label %82

82:                                               ; preds = %81, %35
  %83 = load i32, ptr %10, align 4, !tbaa !13
  ret i32 %83
}