; Function Attrs: nounwind uwtable
define i32 @stbte__info_value(ptr noundef readonly captures(none) %0, i32 noundef %1, i32 noundef %2, i32 noundef %3, i32 noundef %4, i32 noundef %5) local_unnamed_addr #15 {
  %7 = alloca [16 x i8], align 16
  %8 = load i32, ptr getelementptr inbounds nuw (i8, ptr @stbte__ui, i64 20), align 4, !tbaa !95
  %9 = icmp eq i32 %8, 0
  br i1 %9, label %10, label %62

10:                                               ; preds = %6
  %11 = load i8, ptr %0, align 1, !tbaa !47
  %12 = sext i8 %11 to i64
  %13 = add nsw i64 %12, -16
  %14 = getelementptr inbounds [769 x i16], ptr @stbte__fontdata, i64 0, i64 %13
  %15 = load i16, ptr %14, align 2, !tbaa !21
  %16 = sext i16 %15 to i32
  call void @llvm.lifetime.start.p0(i64 16, ptr nonnull %7) #26
  %17 = call i32 (ptr, ptr, ...) @sprintf(ptr noundef nonnull dereferenceable(1) %7, ptr noundef nonnull dereferenceable(1) %0, i32 noundef %4, i32 noundef %3) #26
  %reass.sub = sub i32 %1, %16
  %18 = load i32, ptr getelementptr inbounds nuw (i8, ptr @stbte__color_table, i64 308), align 4, !tbaa !67
  %19 = add i32 %reass.sub, 1008
  %20 = load i8, ptr %7, align 16, !tbaa !47
  %.not25.i = icmp eq i8 %20, 0
  br i1 %.not25.i, label %stbte__draw_text_core.exit, label %.lr.ph.i.preheader

.lr.ph.i.preheader:                               ; preds = %10
  %21 = add i32 %reass.sub, 9
  br label %.lr.ph.i

.lr.ph.i:                                         ; preds = %.lr.ph.i.preheader, %stbte__draw_bitmap.exit.i
  %22 = phi i8 [ %61, %stbte__draw_bitmap.exit.i ], [ %20, %.lr.ph.i.preheader ]
  %.01927.i = phi i32 [ %60, %stbte__draw_bitmap.exit.i ], [ %21, %.lr.ph.i.preheader ]
  %.02026.i = phi ptr [ %23, %stbte__draw_bitmap.exit.i ], [ %7, %.lr.ph.i.preheader ]
  %23 = getelementptr inbounds nuw i8, ptr %.02026.i, i64 1
  %24 = sext i8 %22 to i64
  %25 = add nsw i64 %24, -16
  %26 = getelementptr inbounds [769 x i16], ptr @stbte__fontdata, i64 0, i64 %25
  %27 = load i16, ptr %26, align 2, !tbaa !21
  %28 = sext i16 %27 to i32
  %29 = add nsw i32 %.01927.i, %28
  %30 = icmp sgt i32 %29, %19
  br i1 %30, label %stbte__draw_text_core.exit, label %31

31:                                               ; preds = %.lr.ph.i
  %invariant.op.i.i = add i32 %.01927.i, 1
  %32 = icmp sgt i16 %27, 0
  br i1 %32, label %.lr.ph.i.preheader.i, label %stbte__draw_bitmap.exit.i

.lr.ph.i.preheader.i:                             ; preds = %31
  %33 = getelementptr inbounds [111 x i16], ptr @stbte__font_offset, i64 0, i64 %25
  %34 = load i16, ptr %33, align 2, !tbaa !21
  %35 = sext i16 %34 to i64
  %36 = getelementptr inbounds i16, ptr @stbte__fontdata, i64 %35
  br label %.lr.ph.i.i

.lr.ph.i.i:                                       ; preds = %stbte__draw_bitmask_as_columns.exit.i.i, %.lr.ph.i.preheader.i
  %.09.i.i = phi i32 [ %56, %stbte__draw_bitmask_as_columns.exit.i.i ], [ 0, %.lr.ph.i.preheader.i ]
  %.078.i.i = phi ptr [ %38, %stbte__draw_bitmask_as_columns.exit.i.i ], [ %36, %.lr.ph.i.preheader.i ]
  %37 = add nsw i32 %.09.i.i, %.01927.i
  %38 = getelementptr inbounds nuw i8, ptr %.078.i.i, i64 2
  %39 = load i16, ptr %.078.i.i, align 2, !tbaa !21
  %.not20.i.i.i = icmp eq i16 %39, 0
  br i1 %.not20.i.i.i, label %stbte__draw_bitmask_as_columns.exit.i.i, label %.lr.ph.i.i.i

.lr.ph.i.i.i:                                     ; preds = %.lr.ph.i.i
  %.reass.i.i = add i32 %.09.i.i, %invariant.op.i.i
  br label %40

40:                                               ; preds = %54, %.lr.ph.i.i.i
  %.023.i.i.i = phi i32 [ 0, %.lr.ph.i.i.i ], [ %55, %54 ]
  %.01622.i.i.i = phi i32 [ -1, %.lr.ph.i.i.i ], [ %.1.i.i.i, %54 ]
  %.01721.i.i.i = phi i16 [ %39, %.lr.ph.i.i.i ], [ %.118.i.i.i, %54 ]
  %41 = sext i16 %.01721.i.i.i to i32
  %42 = shl nuw i32 1, %.023.i.i.i
  %43 = and i32 %42, %41
  %.not19.i.i.i = icmp eq i32 %43, 0
  br i1 %.not19.i.i.i, label %46, label %44

44:                                               ; preds = %40
  %45 = icmp slt i32 %.01622.i.i.i, 0
  %spec.select.i.i.i = select i1 %45, i32 %.023.i.i.i, i32 %.01622.i.i.i
  br label %54

46:                                               ; preds = %40
  %47 = icmp sgt i32 %.01622.i.i.i, -1
  br i1 %47, label %48, label %54

48:                                               ; preds = %46
  %49 = add nsw i32 %.01622.i.i.i, %2
  %50 = add nsw i32 %.023.i.i.i, %2
  tail call void @STBTE_DRAW_RECT(i32 noundef %37, i32 noundef %49, i32 noundef %.reass.i.i, i32 noundef %50, i32 noundef %18) #26
  %51 = trunc i32 %42 to i16
  %52 = sub i16 0, %51
  %53 = and i16 %.01721.i.i.i, %52
  br label %54

54:                                               ; preds = %48, %46, %44
  %.118.i.i.i = phi i16 [ %53, %48 ], [ %.01721.i.i.i, %46 ], [ %.01721.i.i.i, %44 ]
  %.1.i.i.i = phi i32 [ -1, %48 ], [ %.01622.i.i.i, %46 ], [ %spec.select.i.i.i, %44 ]
  %55 = add nuw nsw i32 %.023.i.i.i, 1
  %.not.i.i.i = icmp eq i16 %.118.i.i.i, 0
  br i1 %.not.i.i.i, label %stbte__draw_bitmask_as_columns.exit.i.i, label %40, !llvm.loop !84

stbte__draw_bitmask_as_columns.exit.i.i:          ; preds = %54, %.lr.ph.i.i
  %56 = add nuw nsw i32 %.09.i.i, 1
  %exitcond.not.i.i = icmp eq i32 %56, %28
  br i1 %exitcond.not.i.i, label %stbte__draw_bitmap.exit.i, label %.lr.ph.i.i, !llvm.loop !85

stbte__draw_bitmap.exit.i:                        ; preds = %stbte__draw_bitmask_as_columns.exit.i.i, %31
  %57 = icmp eq i8 %22, 32
  %58 = load i16, ptr getelementptr inbounds nuw (i8, ptr @stbte__fontdata, i64 64), align 16
  %59 = sext i16 %58 to i32
  %.018.i = select i1 %57, i32 %59, i32 %28
  %60 = add i32 %.018.i, %invariant.op.i.i
  %61 = load i8, ptr %23, align 1, !tbaa !47
  %.not.i = icmp eq i8 %61, 0
  br i1 %.not.i, label %stbte__draw_text_core.exit, label %.lr.ph.i

stbte__draw_text_core.exit:                       ; preds = %.lr.ph.i, %stbte__draw_bitmap.exit.i, %10
  call void @llvm.lifetime.end.p0(i64 16, ptr nonnull %7) #26
  br label %62

62:                                               ; preds = %stbte__draw_text_core.exit, %6
  %.not = icmp eq i32 %5, 0
  br i1 %.not, label %80, label %63

63:                                               ; preds = %62
  %64 = mul nsw i32 %4, 7
  %65 = add i32 %1, 13
  %66 = add i32 %65, %64
  %67 = add nsw i32 %5, 524288
  %68 = tail call i32 @stbte__minibutton(i32 noundef 7, i32 noundef %66, i32 noundef %2, i32 noundef 43, i32 noundef %67)
  %.not22 = icmp eq i32 %68, 0
  %69 = load i32, ptr getelementptr inbounds nuw (i8, ptr @stbte__ui, i64 44), align 4
  %.not23 = icmp eq i32 %69, 0
  %70 = select i1 %.not23, i32 1, i32 10
  %71 = select i1 %.not22, i32 0, i32 %70
  %.1 = add nsw i32 %71, %3
  %72 = add nsw i32 %66, 9
  %73 = add nsw i32 %5, 1048576
  %74 = tail call i32 @stbte__minibutton(i32 noundef 7, i32 noundef %72, i32 noundef %2, i32 noundef 45, i32 noundef %73)
  %.not24 = icmp eq i32 %74, 0
  %75 = load i32, ptr getelementptr inbounds nuw (i8, ptr @stbte__ui, i64 44), align 4
  %.not25 = icmp eq i32 %75, 0
  %.neg = select i1 %.not25, i32 -1, i32 -10
  %76 = select i1 %.not24, i32 0, i32 %.neg
  %.2 = add i32 %.1, %76
  %77 = icmp slt i32 %.2, 1
  br i1 %77, label %80, label %78

78:                                               ; preds = %63
  %79 = tail call i32 @llvm.umin.i32(i32 %.2, i32 4096)
  br label %80

80:                                               ; preds = %63, %78, %62
  %.0 = phi i32 [ %79, %78 ], [ %3, %62 ], [ 1, %63 ]
  ret i32 %.0
}